target datalayout = "e-m:e-p270:32:32-p271:32:32-p272:64:64-i64:64-i128:128-f80:128-n8:16:32:64-S128"
target triple = "x86_64-pc-linux-gnu"

%struct.AVChannelLayout = type { i32, i32, %union.anon.1, ptr }
%union.anon.1 = type { i64 }
%struct.AVFilterContext = type { ptr, ptr, ptr, ptr, ptr, i32, ptr, ptr, i32, ptr, ptr, i32, i32, ptr, ptr, ptr, ptr, i32, ptr, i32, i32 }
%struct.ShowCQTContext = type { ptr, ptr, ptr, ptr, i32, i32, i32, i32, %struct.AVRational, i32, i32, i32, i64, ptr, ptr, ptr, ptr, ptr, ptr, ptr, ptr, ptr, i32, i32, i32, i32, ptr, ptr, ptr, ptr, ptr, [3 x [3 x float]], [6 x float], ptr, ptr, ptr, ptr, ptr, ptr, i64, i64, i64, i64, i64, i64, i64, i64, i32, i32, %struct.AVRational, i32, i32, i32, i32, ptr, ptr, float, float, float, double, double, double, double, float, ptr, i32, i32, ptr, ptr, ptr, ptr, i32, i32, ptr }
%struct.AVRational = type { i32, i32 }
%struct.AVFilterFormatsConfig = type { ptr, ptr, ptr, ptr, ptr }
%struct.AVFilterLink = type { ptr, ptr, ptr, ptr, i32, i32, i32, i32, %struct.AVRational, i32, i32, i32, %struct.AVChannelLayout, %struct.AVRational, ptr, i32, %struct.AVFilterFormatsConfig, %struct.AVFilterFormatsConfig }

; Function Attrs: inlinehint nounwind uwtable
define internal void @ff_outlink_set_status(ptr noundef %0, i32 noundef %1, i64 noundef %2) #3 {
  %4 = alloca ptr, align 8
  %5 = alloca i32, align 4
  %6 = alloca i64, align 8
  store ptr %0, ptr %4, align 8, !tbaa !52
  store i32 %1, ptr %5, align 4, !tbaa !50
  store i64 %2, ptr %6, align 8, !tbaa !60
  %7 = load ptr, ptr %4, align 8, !tbaa !52
  %8 = load i32, ptr %5, align 4, !tbaa !50
  %9 = load i64, ptr %6, align 8, !tbaa !60
  call void @ff_avfilter_link_set_in_status(ptr noundef %7, i32 noundef %8, i64 noundef %9)
  ret void
}

; Function Attrs: nounwind uwtable
define internal i32 @activate(ptr noundef %0) #1 {
  %2 = alloca i32, align 4
  %3 = alloca ptr, align 8
  %4 = alloca ptr, align 8
  %5 = alloca ptr, align 8
  %6 = alloca ptr, align 8
  %7 = alloca i32, align 4
  %8 = alloca i32, align 4
  %9 = alloca i32, align 4
  %10 = alloca i64, align 8
  %11 = alloca ptr, align 8
  %12 = alloca i32, align 4
  %13 = alloca i32, align 4
  store ptr %0, ptr %3, align 8, !tbaa !4
  call void @llvm.lifetime.start.p0(i64 8, ptr %4) #12
  %14 = load ptr, ptr %3, align 8, !tbaa !4
  %15 = getelementptr inbounds nuw %struct.AVFilterContext, ptr %14, i32 0, i32 4
  %16 = load ptr, ptr %15, align 8, !tbaa !51
  %17 = getelementptr inbounds ptr, ptr %16, i64 0
  %18 = load ptr, ptr %17, align 8, !tbaa !52
  store ptr %18, ptr %4, align 8, !tbaa !52
  call void @llvm.lifetime.start.p0(i64 8, ptr %5) #12
  %19 = load ptr, ptr %3, align 8, !tbaa !4
  %20 = getelementptr inbounds nuw %struct.AVFilterContext, ptr %19, i32 0, i32 7
  %21 = load ptr, ptr %20, align 8, !tbaa !54
  %22 = getelementptr inbounds ptr, ptr %21, i64 0
  %23 = load ptr, ptr %22, align 8, !tbaa !52
  store ptr %23, ptr %5, align 8, !tbaa !52
  call void @llvm.lifetime.start.p0(i64 8, ptr %6) #12
  %24 = load ptr, ptr %3, align 8, !tbaa !4
  %25 = getelementptr inbounds nuw %struct.AVFilterContext, ptr %24, i32 0, i32 9
  %26 = load ptr, ptr %25, align 8, !tbaa !9
  store ptr %26, ptr %6, align 8, !tbaa !22
  call void @llvm.lifetime.start.p0(i64 4, ptr %7) #12
  call void @llvm.lifetime.start.p0(i64 4, ptr %8) #12
  call void @llvm.lifetime.start.p0(i64 4, ptr %9) #12
  call void @llvm.lifetime.start.p0(i64 8, ptr %10) #12
  call void @llvm.lifetime.start.p0(i64 8, ptr %11) #12
  br label %27

27:                                               ; preds = %1
  call void @llvm.lifetime.start.p0(i64 4, ptr %12) #12
  %28 = load ptr, ptr %5, align 8, !tbaa !52
  %29 = call i32 @ff_outlink_get_status(ptr noundef %28)
  store i32 %29, ptr %12, align 4, !tbaa !50
  %30 = load i32, ptr %12, align 4, !tbaa !50
  %31 = icmp ne i32 %30, 0
  br i1 %31, label %32, label %35

32:                                               ; preds = %27
  %33 = load ptr, ptr %4, align 8, !tbaa !52
  %34 = load i32, ptr %12, align 4, !tbaa !50
  call void @ff_inlink_set_status(ptr noundef %33, i32 noundef %34)
  store i32 0, ptr %2, align 4
  store i32 1, ptr %13, align 4
  br label %36

35:                                               ; preds = %27
  store i32 0, ptr %13, align 4
  br label %36

36:                                               ; preds = %35, %32
  call void @llvm.lifetime.end.p0(i64 4, ptr %12) #12
  %37 = load i32, ptr %13, align 4
  switch i32 %37, label %109 [
    i32 0, label %38
  ]

38:                                               ; preds = %36
  br label %39

39:                                               ; preds = %38
  br label %40

40:                                               ; preds = %39
  %41 = load ptr, ptr %6, align 8, !tbaa !22
  %42 = getelementptr inbounds nuw %struct.ShowCQTContext, ptr %41, i32 0, i32 7
  %43 = load i32, ptr %42, align 4, !tbaa !55
  %44 = load ptr, ptr %6, align 8, !tbaa !22
  %45 = getelementptr inbounds nuw %struct.ShowCQTContext, ptr %44, i32 0, i32 8
  %46 = getelementptr inbounds nuw %struct.AVRational, ptr %45, i32 0, i32 0
  %47 = load i32, ptr %46, align 8, !tbaa !56
  %48 = load ptr, ptr %6, align 8, !tbaa !22
  %49 = getelementptr inbounds nuw %struct.ShowCQTContext, ptr %48, i32 0, i32 9
  %50 = load i32, ptr %49, align 8, !tbaa !57
  %51 = add nsw i32 %47, %50
  %52 = load ptr, ptr %6, align 8, !tbaa !22
  %53 = getelementptr inbounds nuw %struct.ShowCQTContext, ptr %52, i32 0, i32 8
  %54 = getelementptr inbounds nuw %struct.AVRational, ptr %53, i32 0, i32 1
  %55 = load i32, ptr %54, align 4, !tbaa !58
  %56 = sdiv i32 %51, %55
  %57 = add nsw i32 %43, %56
  store i32 %57, ptr %7, align 4, !tbaa !50
  %58 = load ptr, ptr %4, align 8, !tbaa !52
  %59 = load i32, ptr %7, align 4, !tbaa !50
  %60 = load i32, ptr %7, align 4, !tbaa !50
  %61 = call i32 @ff_inlink_consume_samples(ptr noundef %58, i32 noundef %59, i32 noundef %60, ptr noundef %11)
  store i32 %61, ptr %8, align 4, !tbaa !50
  %62 = load i32, ptr %8, align 4, !tbaa !50
  %63 = icmp slt i32 %62, 0
  br i1 %63, label %64, label %66

64:                                               ; preds = %40
  %65 = load i32, ptr %8, align 4, !tbaa !50
  store i32 %65, ptr %2, align 4
  store i32 1, ptr %13, align 4
  br label %109

66:                                               ; preds = %40
  %67 = load i32, ptr %8, align 4, !tbaa !50
  %68 = icmp sgt i32 %67, 0
  br i1 %68, label %69, label %73

69:                                               ; preds = %66
  %70 = load ptr, ptr %4, align 8, !tbaa !52
  %71 = load ptr, ptr %11, align 8, !tbaa !59
  %72 = call i32 @filter_frame(ptr noundef %70, ptr noundef %71)
  store i32 %72, ptr %2, align 4
  store i32 1, ptr %13, align 4
  br label %109

73:                                               ; preds = %66
  %74 = load ptr, ptr %4, align 8, !tbaa !52
  %75 = call i32 @ff_inlink_acknowledge_status(ptr noundef %74, ptr noundef %9, ptr noundef %10)
  %76 = icmp ne i32 %75, 0
  br i1 %76, label %77, label %99

77:                                               ; preds = %73
  %78 = load i32, ptr %9, align 4, !tbaa !50
  %79 = icmp eq i32 %78, -541478725
  br i1 %79, label %80, label %98

80:                                               ; preds = %77
  %81 = load i64, ptr %10, align 8, !tbaa !60
  %82 = load ptr, ptr %4, align 8, !tbaa !52
  %83 = getelementptr inbounds nuw %struct.AVFilterLink, ptr %82, i32 0, i32 13
  %84 = load ptr, ptr %5, align 8, !tbaa !52
  %85 = getelementptr inbounds nuw %struct.AVFilterLink, ptr %84, i32 0, i32 13
  %86 = load i64, ptr %83, align 8
  %87 = load i64, ptr %85, align 8
  %88 = call i64 @av_rescale_q(i64 noundef %81, i64 %86, i64 %87) #13
  %89 = load ptr, ptr %6, align 8, !tbaa !22
  %90 = getelementptr inbounds nuw %struct.ShowCQTContext, ptr %89, i32 0, i32 12
  store i64 %88, ptr %90, align 8, !tbaa !61
  %91 = load ptr, ptr %4, align 8, !tbaa !52
  %92 = call i32 @filter_frame(ptr noundef %91, ptr noundef null)
  store i32 %92, ptr %8, align 4, !tbaa !50
  %93 = load ptr, ptr %5, align 8, !tbaa !52
  %94 = load ptr, ptr %6, align 8, !tbaa !22
  %95 = getelementptr inbounds nuw %struct.ShowCQTContext, ptr %94, i32 0, i32 12
  %96 = load i64, ptr %95, align 8, !tbaa !61
  call void @ff_outlink_set_status(ptr noundef %93, i32 noundef -541478725, i64 noundef %96)
  %97 = load i32, ptr %8, align 4, !tbaa !50
  store i32 %97, ptr %2, align 4
  store i32 1, ptr %13, align 4
  br label %109

98:                                               ; preds = %77
  br label %99

99:                                               ; preds = %98, %73
  br label %100

100:                                              ; preds = %99
  %101 = load ptr, ptr %5, align 8, !tbaa !52
  %102 = call i32 @ff_outlink_frame_wanted(ptr noundef %101)
  %103 = icmp ne i32 %102, 0
  br i1 %103, label %104, label %106

104:                                              ; preds = %100
  %105 = load ptr, ptr %4, align 8, !tbaa !52
  call void @ff_inlink_request_frame(ptr noundef %105)
  store i32 0, ptr %2, align 4
  store i32 1, ptr %13, align 4
  br label %109

106:                                              ; preds = %100
  br label %107

107:                                              ; preds = %106
  br label %108

108:                                              ; preds = %107
  store i32 -1497649742, ptr %2, align 4
  store i32 1, ptr %13, align 4
  br label %109

109:                                              ; preds = %108, %104, %80, %69, %64, %36
  call void @llvm.lifetime.end.p0(i64 8, ptr %11) #12
  call void @llvm.lifetime.end.p0(i64 8, ptr %10) #12
  call void @llvm.lifetime.end.p0(i64 4, ptr %9) #12
  call void @llvm.lifetime.end.p0(i64 4, ptr %8) #12
  call void @llvm.lifetime.end.p0(i64 4, ptr %7) #12
  call void @llvm.lifetime.end.p0(i64 8, ptr %6) #12
  call void @llvm.lifetime.end.p0(i64 8, ptr %5) #12
  call void @llvm.lifetime.end.p0(i64 8, ptr %4) #12
  %110 = load i32, ptr %2, align 4
  ret i32 %110
}