; Function Attrs: nounwind uwtable
define internal i32 @activate(ptr noundef readonly captures(none) %0) #1 {
  %2 = alloca i32, align 4
  %3 = alloca i64, align 8
  %4 = alloca ptr, align 8
  %5 = getelementptr inbounds nuw i8, ptr %0, i64 32
  %6 = load ptr, ptr %5, align 8, !tbaa !43
  %7 = load ptr, ptr %6, align 8, !tbaa !44
  %8 = getelementptr inbounds nuw i8, ptr %0, i64 56
  %9 = load ptr, ptr %8, align 8, !tbaa !46
  %10 = load ptr, ptr %9, align 8, !tbaa !44
  %11 = getelementptr inbounds nuw i8, ptr %0, i64 72
  %12 = load ptr, ptr %11, align 8, !tbaa !4
  call void @llvm.lifetime.start.p0(i64 4, ptr nonnull %2) #15
  call void @llvm.lifetime.start.p0(i64 8, ptr nonnull %3) #15
  call void @llvm.lifetime.start.p0(i64 8, ptr nonnull %4) #15
  %13 = tail call i32 @ff_outlink_get_status(ptr noundef %10) #15
  %.not = icmp eq i32 %13, 0
  br i1 %.not, label %.critedge, label %14

14:                                               ; preds = %1
  tail call void @ff_inlink_set_status(ptr noundef %7, i32 noundef %13) #15
  br label %50

.critedge:                                        ; preds = %1
  %15 = getelementptr inbounds nuw i8, ptr %12, i64 44
  %16 = load i32, ptr %15, align 4, !tbaa !47
  %17 = getelementptr inbounds nuw i8, ptr %12, i64 48
  %18 = load i32, ptr %17, align 8, !tbaa !48
  %19 = getelementptr inbounds nuw i8, ptr %12, i64 56
  %20 = load i32, ptr %19, align 8, !tbaa !49
  %21 = add nsw i32 %20, %18
  %22 = getelementptr inbounds nuw i8, ptr %12, i64 52
  %23 = load i32, ptr %22, align 4, !tbaa !50
  %24 = sdiv i32 %21, %23
  %25 = add nsw i32 %24, %16
  %26 = call i32 @ff_inlink_consume_samples(ptr noundef %7, i32 noundef %25, i32 noundef %25, ptr noundef nonnull %4) #15
  %27 = icmp slt i32 %26, 0
  br i1 %27, label %50, label %28

28:                                               ; preds = %.critedge
  %.not34 = icmp eq i32 %26, 0
  br i1 %.not34, label %32, label %29

29:                                               ; preds = %28
  %30 = load ptr, ptr %4, align 8, !tbaa !51
  %31 = call fastcc i32 @filter_frame(ptr noundef %7, ptr noundef %30)
  br label %50

32:                                               ; preds = %28
  %33 = call i32 @ff_inlink_acknowledge_status(ptr noundef %7, ptr noundef nonnull %2, ptr noundef nonnull %3) #15
  %34 = icmp ne i32 %33, 0
  %35 = load i32, ptr %2, align 4
  %36 = icmp eq i32 %35, -541478725
  %or.cond = select i1 %34, i1 %36, i1 false
  br i1 %or.cond, label %37, label %47

37:                                               ; preds = %32
  %38 = load i64, ptr %3, align 8, !tbaa !52
  %39 = getelementptr inbounds nuw i8, ptr %7, i64 96
  %40 = getelementptr inbounds nuw i8, ptr %10, i64 96
  %41 = load i64, ptr %39, align 8
  %42 = load i64, ptr %40, align 8
  %43 = call i64 @av_rescale_q(i64 noundef %38, i64 %41, i64 %42) #16
  %44 = getelementptr inbounds nuw i8, ptr %12, i64 72
  store i64 %43, ptr %44, align 8, !tbaa !53
  %45 = call fastcc i32 @filter_frame(ptr noundef %7, ptr noundef null)
  %46 = load i64, ptr %44, align 8, !tbaa !53
  call void @ff_avfilter_link_set_in_status(ptr noundef %10, i32 noundef -541478725, i64 noundef %46) #15
  br label %50

47:                                               ; preds = %32
  %48 = call i32 @ff_outlink_frame_wanted(ptr noundef %10) #15
  %.not35 = icmp eq i32 %48, 0
  br i1 %.not35, label %50, label %49

49:                                               ; preds = %47
  call void @ff_inlink_request_frame(ptr noundef %7) #15
  br label %50

50:                                               ; preds = %14, %47, %.critedge, %49, %37, %29
  %.1 = phi i32 [ %31, %29 ], [ %45, %37 ], [ 0, %49 ], [ 0, %14 ], [ %26, %.critedge ], [ -1497649742, %47 ]
  call void @llvm.lifetime.end.p0(i64 8, ptr nonnull %4) #15
  call void @llvm.lifetime.end.p0(i64 8, ptr nonnull %3) #15
  call void @llvm.lifetime.end.p0(i64 4, ptr nonnull %2) #15
  ret i32 %.1
}